target datalayout = "e-m:e-p270:32:32-p271:32:32-p272:64:64-i64:64-i128:128-f80:128-n8:16:32:64-S128"
target triple = "x86_64-pc-linux-gnu"

%"class.llvm::SmallVectorBase" = type { ptr, i32, i32 }
%"class.std::unique_ptr.187" = type { %"struct.std::__uniq_ptr_data.188" }
%"struct.std::__uniq_ptr_data.188" = type { %"class.std::__uniq_ptr_impl.189" }
%"class.std::__uniq_ptr_impl.189" = type { %"class.std::tuple.190" }
%"class.std::tuple.190" = type { %"struct.std::_Tuple_impl.191" }
%"struct.std::_Tuple_impl.191" = type { %"struct.std::_Head_base.194" }
%"struct.std::_Head_base.194" = type { ptr }
%"class.llvm::AsmPrinter" = type <{ %"class.llvm::MachineFunctionPass", ptr, ptr, ptr, %"class.std::unique_ptr.159", ptr, ptr, ptr, ptr, ptr, ptr, ptr, ptr, ptr, %"class.llvm::MapVector", %"class.llvm::MapVector.175", ptr, %"class.llvm::DenseMap.184", ptr, %"class.std::unique_ptr.187", %"class.llvm::DenseMap.195", i8, [7 x i8], %"class.std::unique_ptr.75", %"class.llvm::DenseMap.198", ptr, ptr, %"class.llvm::SmallVector.201", i64, %"class.llvm::SmallVector.206", i64, %"class.llvm::StackMaps", %"class.std::unique_ptr.231", %"class.std::unique_ptr.239", ptr, %"class.std::unique_ptr.247", i32, i8, i8, i8, i8, %"class.llvm::SmallVector.255", ptr, i32, i32, i8, [7 x i8] }>
%"class.llvm::MachineFunctionPass" = type { %"class.llvm::FunctionPass.base", %"class.llvm::MachineFunctionProperties", %"class.llvm::MachineFunctionProperties", %"class.llvm::MachineFunctionProperties" }
%"class.llvm::FunctionPass.base" = type { %"class.llvm::Pass.base" }
%"class.llvm::Pass.base" = type <{ ptr, ptr, ptr, i32 }>
%"class.llvm::MachineFunctionProperties" = type { %"class.std::bitset" }
%"class.std::bitset" = type { %"struct.std::_Base_bitset" }
%"struct.std::_Base_bitset" = type { i64 }
%"class.std::unique_ptr.159" = type { %"struct.std::__uniq_ptr_data.160" }
%"struct.std::__uniq_ptr_data.160" = type { %"class.std::__uniq_ptr_impl.161" }
%"class.std::__uniq_ptr_impl.161" = type { %"class.std::tuple.162" }
%"class.std::tuple.162" = type { %"struct.std::_Tuple_impl.163" }
%"struct.std::_Tuple_impl.163" = type { %"struct.std::_Head_base.166" }
%"struct.std::_Head_base.166" = type { ptr }
%"class.llvm::MapVector" = type { %"class.llvm::DenseMap.167", %"class.llvm::SmallVector.170" }
%"class.llvm::DenseMap.167" = type <{ ptr, i32, i32, i32, [4 x i8] }>
%"class.llvm::SmallVector.170" = type { %"class.llvm::SmallVectorImpl.171" }
%"class.llvm::SmallVectorImpl.171" = type { %"class.llvm::SmallVectorTemplateBase.172" }
%"class.llvm::SmallVectorTemplateBase.172" = type { %"class.llvm::SmallVectorTemplateCommon.173" }
%"class.llvm::SmallVectorTemplateCommon.173" = type { %"class.llvm::SmallVectorBase" }
%"class.llvm::MapVector.175" = type { %"class.llvm::DenseMap.176", %"class.llvm::SmallVector.179" }
%"class.llvm::DenseMap.176" = type <{ ptr, i32, i32, i32, [4 x i8] }>
%"class.llvm::SmallVector.179" = type { %"class.llvm::SmallVectorImpl.180" }
%"class.llvm::SmallVectorImpl.180" = type { %"class.llvm::SmallVectorTemplateBase.181" }
%"class.llvm::SmallVectorTemplateBase.181" = type { %"class.llvm::SmallVectorTemplateCommon.182" }
%"class.llvm::SmallVectorTemplateCommon.182" = type { %"class.llvm::SmallVectorBase" }
%"class.llvm::DenseMap.184" = type <{ ptr, i32, i32, i32, [4 x i8] }>
%"class.llvm::DenseMap.195" = type <{ ptr, i32, i32, i32, [4 x i8] }>
%"class.std::unique_ptr.75" = type { %"struct.std::__uniq_ptr_data.76" }
%"struct.std::__uniq_ptr_data.76" = type { %"class.std::__uniq_ptr_impl.77" }
%"class.std::__uniq_ptr_impl.77" = type { %"class.std::tuple.78" }
%"class.std::tuple.78" = type { %"struct.std::_Tuple_impl.79" }
%"struct.std::_Tuple_impl.79" = type { %"struct.std::_Head_base.82" }
%"struct.std::_Head_base.82" = type { ptr }
%"class.llvm::DenseMap.198" = type <{ ptr, i32, i32, i32, [4 x i8] }>
%"class.llvm::SmallVector.201" = type { %"class.llvm::SmallVectorImpl.202", %"struct.llvm::SmallVectorStorage.205" }
%"class.llvm::SmallVectorImpl.202" = type { %"class.llvm::SmallVectorTemplateBase.203" }
%"class.llvm::SmallVectorTemplateBase.203" = type { %"class.llvm::SmallVectorTemplateCommon.204" }
%"class.llvm::SmallVectorTemplateCommon.204" = type { %"class.llvm::SmallVectorBase" }
%"struct.llvm::SmallVectorStorage.205" = type { [16 x i8] }
%"class.llvm::SmallVector.206" = type { %"class.llvm::SmallVectorImpl.207", %"struct.llvm::SmallVectorStorage.210" }
%"class.llvm::SmallVectorImpl.207" = type { %"class.llvm::SmallVectorTemplateBase.208" }
%"class.llvm::SmallVectorTemplateBase.208" = type { %"class.llvm::SmallVectorTemplateCommon.209" }
%"class.llvm::SmallVectorTemplateCommon.209" = type { %"class.llvm::SmallVectorBase" }
%"struct.llvm::SmallVectorStorage.210" = type { [8 x i8] }
%"class.llvm::StackMaps" = type { ptr, %"class.std::vector.211", %"class.llvm::MapVector.216", %"class.llvm::MapVector.225" }
%"class.std::vector.211" = type { %"struct.std::_Vector_base.212" }
%"struct.std::_Vector_base.212" = type { %"struct.std::_Vector_base<llvm::StackMaps::CallsiteInfo, std::allocator<llvm::StackMaps::CallsiteInfo>>::_Vector_impl" }
%"struct.std::_Vector_base<llvm::StackMaps::CallsiteInfo, std::allocator<llvm::StackMaps::CallsiteInfo>>::_Vector_impl" = type { %"struct.std::_Vector_base<llvm::StackMaps::CallsiteInfo, std::allocator<llvm::StackMaps::CallsiteInfo>>::_Vector_impl_data" }
%"struct.std::_Vector_base<llvm::StackMaps::CallsiteInfo, std::allocator<llvm::StackMaps::CallsiteInfo>>::_Vector_impl_data" = type { ptr, ptr, ptr }
%"class.llvm::MapVector.216" = type { %"class.llvm::DenseMap.217", %"class.llvm::SmallVector.220" }
%"class.llvm::DenseMap.217" = type <{ ptr, i32, i32, i32, [4 x i8] }>
%"class.llvm::SmallVector.220" = type { %"class.llvm::SmallVectorImpl.221" }
%"class.llvm::SmallVectorImpl.221" = type { %"class.llvm::SmallVectorTemplateBase.222" }
%"class.llvm::SmallVectorTemplateBase.222" = type { %"class.llvm::SmallVectorTemplateCommon.223" }
%"class.llvm::SmallVectorTemplateCommon.223" = type { %"class.llvm::SmallVectorBase" }
%"class.llvm::MapVector.225" = type { %"class.llvm::DenseMap.176", %"class.llvm::SmallVector.226" }
%"class.llvm::SmallVector.226" = type { %"class.llvm::SmallVectorImpl.227" }
%"class.llvm::SmallVectorImpl.227" = type { %"class.llvm::SmallVectorTemplateBase.228" }
%"class.llvm::SmallVectorTemplateBase.228" = type { %"class.llvm::SmallVectorTemplateCommon.229" }
%"class.llvm::SmallVectorTemplateCommon.229" = type { %"class.llvm::SmallVectorBase" }
%"class.std::unique_ptr.231" = type { %"struct.std::__uniq_ptr_data.232" }
%"struct.std::__uniq_ptr_data.232" = type { %"class.std::__uniq_ptr_impl.233" }
%"class.std::__uniq_ptr_impl.233" = type { %"class.std::tuple.234" }
%"class.std::tuple.234" = type { %"struct.std::_Tuple_impl.235" }
%"struct.std::_Tuple_impl.235" = type { %"struct.std::_Head_base.238" }
%"struct.std::_Head_base.238" = type { ptr }
%"class.std::unique_ptr.239" = type { %"struct.std::__uniq_ptr_data.240" }
%"struct.std::__uniq_ptr_data.240" = type { %"class.std::__uniq_ptr_impl.241" }
%"class.std::__uniq_ptr_impl.241" = type { %"class.std::tuple.242" }
%"class.std::tuple.242" = type { %"struct.std::_Tuple_impl.243" }
%"struct.std::_Tuple_impl.243" = type { %"struct.std::_Head_base.246" }
%"struct.std::_Head_base.246" = type { ptr }
%"class.std::unique_ptr.247" = type { %"struct.std::__uniq_ptr_data.248" }
%"struct.std::__uniq_ptr_data.248" = type { %"class.std::__uniq_ptr_impl.249" }
%"class.std::__uniq_ptr_impl.249" = type { %"class.std::tuple.250" }
%"class.std::tuple.250" = type { %"struct.std::_Tuple_impl.251" }
%"struct.std::_Tuple_impl.251" = type { %"struct.std::_Head_base.254" }
%"struct.std::_Head_base.254" = type { ptr }
%"class.llvm::SmallVector.255" = type { %"class.llvm::SmallVectorImpl.256", %"struct.llvm::SmallVectorStorage.259" }
%"class.llvm::SmallVectorImpl.256" = type { %"class.llvm::SmallVectorTemplateBase.257" }
%"class.llvm::SmallVectorTemplateBase.257" = type { %"class.llvm::SmallVectorTemplateCommon.258" }
%"class.llvm::SmallVectorTemplateCommon.258" = type { %"class.llvm::SmallVectorBase" }
%"struct.llvm::SmallVectorStorage.259" = type { [160 x i8] }

; Function Attrs: mustprogress nounwind uwtable
define linkonce_odr hidden noundef nonnull align 8 dereferenceable(8) ptr @_ZNSt10_Head_baseILm0EPN4llvm10MCStreamerELb0EE7_M_headERKS3_(ptr noundef nonnull align 8 dereferenceable(8) %0) #1 comdat align 2 {
  %2 = alloca ptr, align 8
  store ptr %0, ptr %2, align 8
  %3 = load ptr, ptr %2, align 8
  %4 = getelementptr inbounds nuw %"struct.std::_Head_base.166", ptr %3, i32 0, i32 0
  ret ptr %4
}

; Function Attrs: mustprogress nounwind uwtable
define linkonce_odr hidden noundef nonnull align 8 dereferenceable(8) ptr @_ZNSt11_Tuple_implILm0EJPN4llvm10MCStreamerESt14default_deleteIS1_EEE7_M_headERKS5_(ptr noundef nonnull align 8 dereferenceable(8) %0) #1 comdat align 2 {
  %2 = alloca ptr, align 8
  store ptr %0, ptr %2, align 8
  %3 = load ptr, ptr %2, align 8
  %4 = call noundef nonnull align 8 dereferenceable(8) ptr @_ZNSt10_Head_baseILm0EPN4llvm10MCStreamerELb0EE7_M_headERKS3_(ptr noundef nonnull align 8 dereferenceable(8) %3) #2
  ret ptr %4
}

; Function Attrs: mustprogress nounwind uwtable
define linkonce_odr noundef nonnull align 8 dereferenceable(8) ptr @_ZSt12__get_helperILm0EPN4llvm10MCStreamerEJSt14default_deleteIS1_EEERKT0_RKSt11_Tuple_implIXT_EJS5_DpT1_EE(ptr noundef nonnull align 8 dereferenceable(8) %0) #1 comdat {
  %2 = alloca ptr, align 8
  store ptr %0, ptr %2, align 8
  %3 = load ptr, ptr %2, align 8
  %4 = call noundef nonnull align 8 dereferenceable(8) ptr @_ZNSt11_Tuple_implILm0EJPN4llvm10MCStreamerESt14default_deleteIS1_EEE7_M_headERKS5_(ptr noundef nonnull align 8 dereferenceable(8) %3) #2
  ret ptr %4
}

; Function Attrs: mustprogress nounwind uwtable
define linkonce_odr noundef nonnull align 8 dereferenceable(8) ptr @_ZSt3getILm0EJPN4llvm10MCStreamerESt14default_deleteIS1_EEERKNSt13tuple_elementIXT_ESt5tupleIJDpT0_EEE4typeERKS9_(ptr noundef nonnull align 8 dereferenceable(8) %0) #1 comdat {
  %2 = alloca ptr, align 8
  store ptr %0, ptr %2, align 8
  %3 = load ptr, ptr %2, align 8
  %4 = call noundef nonnull align 8 dereferenceable(8) ptr @_ZSt12__get_helperILm0EPN4llvm10MCStreamerEJSt14default_deleteIS1_EEERKT0_RKSt11_Tuple_implIXT_EJS5_DpT1_EE(ptr noundef nonnull align 8 dereferenceable(8) %3) #2
  ret ptr %4
}

; Function Attrs: mustprogress nounwind uwtable
define linkonce_odr hidden noundef ptr @_ZNKSt15__uniq_ptr_implIN4llvm10MCStreamerESt14default_deleteIS1_EE6_M_ptrEv(ptr noundef nonnull align 8 dereferenceable(8) %0) #1 comdat align 2 {
  %2 = alloca ptr, align 8
  store ptr %0, ptr %2, align 8
  %3 = load ptr, ptr %2, align 8
  %4 = getelementptr inbounds nuw %"class.std::__uniq_ptr_impl.161", ptr %3, i32 0, i32 0
  %5 = call noundef nonnull align 8 dereferenceable(8) ptr @_ZSt3getILm0EJPN4llvm10MCStreamerESt14default_deleteIS1_EEERKNSt13tuple_elementIXT_ESt5tupleIJDpT0_EEE4typeERKS9_(ptr noundef nonnull align 8 dereferenceable(8) %4) #2
  %6 = load ptr, ptr %5, align 8
  ret ptr %6
}

; Function Attrs: mustprogress nounwind uwtable
define linkonce_odr hidden noundef ptr @_ZNKSt10unique_ptrIN4llvm10MCStreamerESt14default_deleteIS1_EE3getEv(ptr noundef nonnull align 8 dereferenceable(8) %0) #1 comdat align 2 {
  %2 = alloca ptr, align 8
  store ptr %0, ptr %2, align 8
  %3 = load ptr, ptr %2, align 8
  %4 = getelementptr inbounds nuw %"class.std::unique_ptr.159", ptr %3, i32 0, i32 0
  %5 = call noundef ptr @_ZNKSt15__uniq_ptr_implIN4llvm10MCStreamerESt14default_deleteIS1_EE6_M_ptrEv(ptr noundef nonnull align 8 dereferenceable(8) %4) #2
  ret ptr %5
}

; Function Attrs: mustprogress nounwind uwtable
define linkonce_odr hidden void @_ZN4llvm10MCStreamer9emitInt32Em(ptr noundef nonnull align 8 dereferenceable(288) %0, i64 noundef %1) #1 comdat align 2 {
  %3 = alloca ptr, align 8
  %4 = alloca i64, align 8
  store ptr %0, ptr %3, align 8
  store i64 %1, ptr %4, align 8
  %5 = load ptr, ptr %3, align 8
  %6 = load i64, ptr %4, align 8
  %7 = load ptr, ptr %5, align 8
  %8 = getelementptr inbounds ptr, ptr %7, i64 65
  %9 = load ptr, ptr %8, align 8
  call void %9(ptr noundef nonnull align 8 dereferenceable(288) %5, i64 noundef %6, i32 noundef 4)
  ret void
}

; Function Attrs: mustprogress nounwind uwtable
define linkonce_odr hidden noundef ptr @_ZNKSt10unique_ptrIN4llvm10MCStreamerESt14default_deleteIS1_EEptEv(ptr noundef nonnull align 8 dereferenceable(8) %0) #1 comdat align 2 {
  %2 = alloca ptr, align 8
  store ptr %0, ptr %2, align 8
  %3 = load ptr, ptr %2, align 8
  %4 = call noundef ptr @_ZNKSt10unique_ptrIN4llvm10MCStreamerESt14default_deleteIS1_EE3getEv(ptr noundef nonnull align 8 dereferenceable(8) %3) #2
  ret ptr %4
}

; Function Attrs: mustprogress nounwind uwtable
define dso_local void @_ZNK4llvm10AsmPrinter9emitInt32Ei(ptr noundef nonnull align 8 dereferenceable(785) %0, i32 noundef %1) #1 align 2 {
  %3 = alloca ptr, align 8
  %4 = alloca i32, align 4
  store ptr %0, ptr %3, align 8
  store i32 %1, ptr %4, align 4
  %5 = load ptr, ptr %3, align 8
  %6 = getelementptr inbounds nuw %"class.llvm::AsmPrinter", ptr %5, i32 0, i32 4
  %7 = call noundef ptr @_ZNKSt10unique_ptrIN4llvm10MCStreamerESt14default_deleteIS1_EEptEv(ptr noundef nonnull align 8 dereferenceable(8) %6) #2
  %8 = load i32, ptr %4, align 4
  %9 = sext i32 %8 to i64
  call void @_ZN4llvm10MCStreamer9emitInt32Em(ptr noundef nonnull align 8 dereferenceable(288) %7, i64 noundef %9)
  ret void
}